target datalayout = "e-m:e-p270:32:32-p271:32:32-p272:64:64-i64:64-i128:128-f80:128-n8:16:32:64-S128"
target triple = "x86_64-unknown-linux-gnu"

%struct.VirtIOGPUBaseClass = type { %struct.VirtioDeviceClass, ptr }
%struct.VirtioDeviceClass = type { %struct.DeviceClass, ptr, ptr, ptr, ptr, ptr, ptr, ptr, ptr, ptr, ptr, ptr, ptr, i64, ptr, ptr, ptr, ptr, ptr, ptr, ptr, ptr, ptr, ptr, ptr }
%struct.DeviceClass = type { %struct.ObjectClass, [1 x i64], ptr, ptr, ptr, i8, i8, ptr, ptr, ptr, ptr, ptr }
%struct.ObjectClass = type { ptr, ptr, [4 x ptr], [4 x ptr], ptr, ptr }

@.str.1 = private unnamed_addr constant [16 x i8] c"virtio-gpu-base\00", align 1
@.str.4 = private unnamed_addr constant [109 x i8] c"/home/dtcxzyw/WorkSpace/Projects/compilers/llvm-opt-benchmark/bench/qemu/qemu/include/hw/virtio/virtio-gpu.h\00", align 1
@.str.6 = private unnamed_addr constant [7 x i8] c"device\00", align 1
@.str.7 = private unnamed_addr constant [101 x i8] c"/home/dtcxzyw/WorkSpace/Projects/compilers/llvm-opt-benchmark/bench/qemu/qemu/include/hw/qdev-core.h\00", align 1
@__func__.DEVICE_CLASS = private unnamed_addr constant [13 x i8] c"DEVICE_CLASS\00", align 1
@.str.8 = private unnamed_addr constant [14 x i8] c"virtio-device\00", align 1
@.str.9 = private unnamed_addr constant [105 x i8] c"/home/dtcxzyw/WorkSpace/Projects/compilers/llvm-opt-benchmark/bench/qemu/qemu/include/hw/virtio/virtio.h\00", align 1
@__func__.VIRTIO_DEVICE_CLASS = private unnamed_addr constant [20 x i8] c"VIRTIO_DEVICE_CLASS\00", align 1
@__func__.VIRTIO_GPU_BASE_CLASS = private unnamed_addr constant [22 x i8] c"VIRTIO_GPU_BASE_CLASS\00", align 1

; Function Attrs: nounwind sspstrong uwtable
define internal ptr @VIRTIO_GPU_BASE_CLASS(ptr noundef %klass) #0 {
entry:
  %klass.addr = alloca ptr, align 8
  store ptr %klass, ptr %klass.addr, align 8
  %0 = load ptr, ptr %klass.addr, align 8
  %call = call ptr @object_class_dynamic_cast_assert(ptr noundef %0, ptr noundef @.str.1, ptr noundef @.str.4, i32 noundef 30, ptr noundef @__func__.VIRTIO_GPU_BASE_CLASS)
  ret ptr %call
}

; Function Attrs: nounwind sspstrong uwtable
define internal ptr @VIRTIO_DEVICE_CLASS(ptr noundef %klass) #0 {
entry:
  %klass.addr = alloca ptr, align 8
  store ptr %klass, ptr %klass.addr, align 8
  %0 = load ptr, ptr %klass.addr, align 8
  %call = call ptr @object_class_dynamic_cast_assert(ptr noundef %0, ptr noundef @.str.8, ptr noundef @.str.9, i32 noundef 85, ptr noundef @__func__.VIRTIO_DEVICE_CLASS)
  ret ptr %call
}

; Function Attrs: nounwind sspstrong uwtable
define internal ptr @DEVICE_CLASS(ptr noundef %klass) #0 {
entry:
  %klass.addr = alloca ptr, align 8
  store ptr %klass, ptr %klass.addr, align 8
  %0 = load ptr, ptr %klass.addr, align 8
  %call = call ptr @object_class_dynamic_cast_assert(ptr noundef %0, ptr noundef @.str.6, ptr noundef @.str.7, i32 noundef 77, ptr noundef @__func__.DEVICE_CLASS)
  ret ptr %call
}

; Function Attrs: nounwind sspstrong uwtable
define internal void @vhost_user_gpu_class_init(ptr noundef %klass, ptr noundef %data) #0 {
entry:
  %klass.addr = alloca ptr, align 8
  %data.addr = alloca ptr, align 8
  %dc = alloca ptr, align 8
  %vdc = alloca ptr, align 8
  %vgc = alloca ptr, align 8
  store ptr %klass, ptr %klass.addr, align 8
  store ptr %data, ptr %data.addr, align 8
  %0 = load ptr, ptr %klass.addr, align 8
  %call = call ptr @DEVICE_CLASS(ptr noundef %0)
  store ptr %call, ptr %dc, align 8
  %1 = load ptr, ptr %klass.addr, align 8
  %call1 = call ptr @VIRTIO_DEVICE_CLASS(ptr noundef %1)
  store ptr %call1, ptr %vdc, align 8
  %2 = load ptr, ptr %klass.addr, align 8
  %call2 = call ptr @VIRTIO_GPU_BASE_CLASS(ptr noundef %2)
  store ptr %call2, ptr %vgc, align 8
  %3 = load ptr, ptr %vgc, align 8
  %gl_flushed = getelementptr inbounds %struct.VirtIOGPUBaseClass, ptr %3, i32 0, i32 1
  store ptr @vhost_user_gpu_gl_flushed, ptr %gl_flushed, align 8
  %4 = load ptr, ptr %vdc, align 8
  %realize = getelementptr inbounds %struct.VirtioDeviceClass, ptr %4, i32 0, i32 1
  store ptr @vhost_user_gpu_device_realize, ptr %realize, align 8
  %5 = load ptr, ptr %vdc, align 8
  %reset = getelementptr inbounds %struct.VirtioDeviceClass, ptr %5, i32 0, i32 9
  store ptr @vhost_user_gpu_reset, ptr %reset, align 8
  %6 = load ptr, ptr %vdc, align 8
  %set_status = getelementptr inbounds %struct.VirtioDeviceClass, ptr %6, i32 0, i32 10
  store ptr @vhost_user_gpu_set_status, ptr %set_status, align 8
  %7 = load ptr, ptr %vdc, align 8
  %guest_notifier_mask = getelementptr inbounds %struct.VirtioDeviceClass, ptr %7, i32 0, i32 15
  store ptr @vhost_user_gpu_guest_notifier_mask, ptr %guest_notifier_mask, align 8
  %8 = load ptr, ptr %vdc, align 8
  %guest_notifier_pending = getelementptr inbounds %struct.VirtioDeviceClass, ptr %8, i32 0, i32 14
  store ptr @vhost_user_gpu_guest_notifier_pending, ptr %guest_notifier_pending, align 8
  %9 = load ptr, ptr %vdc, align 8
  %get_config = getelementptr inbounds %struct.VirtioDeviceClass, ptr %9, i32 0, i32 7
  store ptr @vhost_user_gpu_get_config, ptr %get_config, align 8
  %10 = load ptr, ptr %vdc, align 8
  %set_config = getelementptr inbounds %struct.VirtioDeviceClass, ptr %10, i32 0, i32 8
  store ptr @vhost_user_gpu_set_config, ptr %set_config, align 8
  %11 = load ptr, ptr %vdc, align 8
  %get_vhost = getelementptr inbounds %struct.VirtioDeviceClass, ptr %11, i32 0, i32 23
  store ptr @vhost_user_gpu_get_vhost, ptr %get_vhost, align 8
  %12 = load ptr, ptr %dc, align 8
  call void @device_class_set_props(ptr noundef %12, ptr noundef @vhost_user_gpu_properties)
  ret void
}