; Function Attrs: nounwind sspstrong uwtable
define internal void @vhost_user_gpu_class_init(ptr noundef %klass, ptr readnone captures(none) %data) #0 {
entry:
  %call.i = tail call ptr @object_class_dynamic_cast_assert(ptr noundef %klass, ptr noundef nonnull @.str.6, ptr noundef nonnull @.str.7, i32 noundef 77, ptr noundef nonnull @__func__.DEVICE_CLASS) #7
  %call.i10 = tail call ptr @object_class_dynamic_cast_assert(ptr noundef %klass, ptr noundef nonnull @.str.8, ptr noundef nonnull @.str.9, i32 noundef 85, ptr noundef nonnull @__func__.VIRTIO_DEVICE_CLASS) #7
  %call.i11 = tail call ptr @object_class_dynamic_cast_assert(ptr noundef %klass, ptr noundef nonnull @.str.1, ptr noundef nonnull @.str.4, i32 noundef 30, ptr noundef nonnull @__func__.VIRTIO_GPU_BASE_CLASS) #7
  %gl_flushed = getelementptr inbounds nuw i8, ptr %call.i11, i64 368
  store ptr @vhost_user_gpu_gl_flushed, ptr %gl_flushed, align 8
  %realize = getelementptr inbounds nuw i8, ptr %call.i10, i64 176
  store ptr @vhost_user_gpu_device_realize, ptr %realize, align 8
  %reset = getelementptr inbounds nuw i8, ptr %call.i10, i64 240
  store ptr @vhost_user_gpu_reset, ptr %reset, align 8
  %set_status = getelementptr inbounds nuw i8, ptr %call.i10, i64 248
  store ptr @vhost_user_gpu_set_status, ptr %set_status, align 8
  %guest_notifier_mask = getelementptr inbounds nuw i8, ptr %call.i10, i64 288
  store ptr @vhost_user_gpu_guest_notifier_mask, ptr %guest_notifier_mask, align 8
  %guest_notifier_pending = getelementptr inbounds nuw i8, ptr %call.i10, i64 280
  store ptr @vhost_user_gpu_guest_notifier_pending, ptr %guest_notifier_pending, align 8
  %get_config = getelementptr inbounds nuw i8, ptr %call.i10, i64 224
  store ptr @vhost_user_gpu_get_config, ptr %get_config, align 8
  %set_config = getelementptr inbounds nuw i8, ptr %call.i10, i64 232
  store ptr @vhost_user_gpu_set_config, ptr %set_config, align 8
  %get_vhost = getelementptr inbounds nuw i8, ptr %call.i10, i64 352
  store ptr @vhost_user_gpu_get_vhost, ptr %get_vhost, align 8
  tail call void @device_class_set_props(ptr noundef %call.i, ptr noundef nonnull @vhost_user_gpu_properties) #7
  ret void
}